; Function Attrs: null_pointer_is_valid sspstrong uwtable
define ptr @tvb_new_subset_remaining(ptr noundef %0, i32 noundef %1) local_unnamed_addr #0 {
  %3 = alloca i32, align 4
  %4 = alloca i32, align 4
  call void @llvm.lifetime.start.p0(i64 4, ptr nonnull %3) #5
  call void @llvm.lifetime.start.p0(i64 4, ptr nonnull %4) #5
  call void @tvb_check_offset_length(ptr noundef %0, i32 noundef %1, i32 noundef -1, ptr noundef nonnull %3, ptr noundef nonnull %4)
  %5 = getelementptr inbounds nuw i8, ptr %0, i64 44
  %6 = load i32, ptr %5, align 4
  %7 = load i32, ptr %3, align 4
  %8 = icmp ult i32 %6, %7
  br i1 %8, label %9, label %10

9:                                                ; preds = %2
  call void @except_throw(i64 noundef 1, i64 noundef 3, ptr noundef null) #6
  unreachable

10:                                               ; preds = %2
  %11 = sub nuw i32 %6, %7
  %12 = load i32, ptr %4, align 4
  %13 = call ptr @tvb_new(ptr noundef nonnull @tvb_subset_ops)
  %14 = getelementptr inbounds nuw i8, ptr %13, i64 56
  %15 = getelementptr inbounds nuw i8, ptr %13, i64 64
  store i32 %7, ptr %15, align 8
  %16 = getelementptr inbounds nuw i8, ptr %13, i64 68
  store i32 %12, ptr %16, align 4
  store ptr %0, ptr %14, align 8
  %17 = getelementptr inbounds nuw i8, ptr %13, i64 40
  store i32 %12, ptr %17, align 8
  %18 = getelementptr inbounds nuw i8, ptr %0, i64 48
  %19 = load i32, ptr %18, align 8
  %20 = sub i32 %19, %7
  %..i = call i32 @llvm.umin.i32(i32 %11, i32 %20)
  %21 = getelementptr inbounds nuw i8, ptr %13, i64 48
  store i32 %..i, ptr %21, align 8
  %22 = getelementptr inbounds nuw i8, ptr %0, i64 20
  %23 = load i32, ptr %22, align 4
  %24 = getelementptr inbounds nuw i8, ptr %13, i64 20
  store i32 %23, ptr %24, align 4
  %25 = getelementptr inbounds nuw i8, ptr %13, i64 44
  store i32 %11, ptr %25, align 4
  %26 = getelementptr inbounds nuw i8, ptr %13, i64 16
  store i8 1, ptr %26, align 8
  %27 = getelementptr inbounds nuw i8, ptr %0, i64 32
  %28 = load ptr, ptr %27, align 8
  %.not.i = icmp eq ptr %28, null
  br i1 %.not.i, label %tvb_new_with_subset.exit, label %29

29:                                               ; preds = %10
  %30 = zext i32 %7 to i64
  %31 = getelementptr i8, ptr %28, i64 %30
  %32 = getelementptr inbounds nuw i8, ptr %13, i64 32
  store ptr %31, ptr %32, align 8
  br label %tvb_new_with_subset.exit

tvb_new_with_subset.exit:                         ; preds = %10, %29
  %33 = getelementptr inbounds nuw i8, ptr %0, i64 24
  %34 = load ptr, ptr %33, align 8
  %35 = getelementptr inbounds nuw i8, ptr %13, i64 24
  store ptr %34, ptr %35, align 8
  call void @tvb_add_to_chain(ptr noundef %0, ptr noundef %13)
  call void @llvm.lifetime.end.p0(i64 4, ptr nonnull %4) #5
  call void @llvm.lifetime.end.p0(i64 4, ptr nonnull %3) #5
  ret ptr %13
}